target datalayout = "e-m:e-p270:32:32-p271:32:32-p272:64:64-i64:64-i128:128-f80:128-n8:16:32:64-S128"
target triple = "x86_64-pc-linux-gnu"

%struct.FFFrameSync = type { ptr, ptr, i32, %struct.AVRational, i64, ptr, ptr, i32, i32, i8, i8, ptr, i32, i32, i32, i32 }
%struct.AVRational = type { i32, i32 }
%struct.AVFilterContext = type { ptr, ptr, ptr, ptr, ptr, i32, ptr, ptr, i32, ptr, ptr, i32, i32, ptr, ptr, ptr, ptr, i32, ptr, i32, i32 }

@ff_framesync_class = constant { ptr, ptr, ptr, i32, i32, i32, i32, ptr, ptr, ptr, ptr, i32, [4 x i8] } { ptr @.str, ptr @framesync_name, ptr @framesync_options, i32 3932772, i32 0, i32 8, i32 7, ptr null, ptr null, ptr null, ptr null, i32 0, [4 x i8] zeroinitializer }, align 8
@.str.1 = private unnamed_addr constant [30 x i8] c"Assertion %s failed at %s:%d\0A\00", align 1
@.str.2 = private unnamed_addr constant [24 x i8] c"parent->nb_outputs == 1\00", align 1
@.str.3 = private unnamed_addr constant [24 x i8] c"libavfilter/framesync.c\00", align 1

; Function Attrs: nounwind uwtable
define void @ff_framesync_preinit(ptr noundef %0) #0 {
  %2 = alloca ptr, align 8
  store ptr %0, ptr %2, align 8, !tbaa !12
  %3 = load ptr, ptr %2, align 8, !tbaa !12
  %4 = getelementptr inbounds nuw %struct.FFFrameSync, ptr %3, i32 0, i32 0
  %5 = load ptr, ptr %4, align 8, !tbaa !14
  %6 = icmp ne ptr %5, null
  br i1 %6, label %7, label %8

7:                                                ; preds = %1
  br label %12

8:                                                ; preds = %1
  %9 = load ptr, ptr %2, align 8, !tbaa !12
  %10 = getelementptr inbounds nuw %struct.FFFrameSync, ptr %9, i32 0, i32 0
  store ptr @ff_framesync_class, ptr %10, align 8, !tbaa !14
  %11 = load ptr, ptr %2, align 8, !tbaa !12
  call void @av_opt_set_defaults(ptr noundef %11)
  br label %12

12:                                               ; preds = %8, %7
  ret void
}

; Function Attrs: nounwind uwtable
define i32 @ff_framesync_init(ptr noundef %0, ptr noundef %1, i32 noundef %2) #0 {
  %4 = alloca i32, align 4
  %5 = alloca ptr, align 8
  %6 = alloca ptr, align 8
  %7 = alloca i32, align 4
  store ptr %0, ptr %5, align 8, !tbaa !12
  store ptr %1, ptr %6, align 8, !tbaa !21
  store i32 %2, ptr %7, align 4, !tbaa !22
  br label %8

8:                                                ; preds = %3
  %9 = load ptr, ptr %6, align 8, !tbaa !21
  %10 = getelementptr inbounds nuw %struct.AVFilterContext, ptr %9, i32 0, i32 8
  %11 = load i32, ptr %10, align 8, !tbaa !23
  %12 = icmp eq i32 %11, 1
  br i1 %12, label %14, label %13

13:                                               ; preds = %8
  call void (ptr, i32, ptr, ...) @av_log(ptr noundef null, i32 noundef 0, ptr noundef @.str.1, ptr noundef @.str.2, ptr noundef @.str.3, i32 noundef 91)
  call void @abort() #8
  unreachable

14:                                               ; preds = %8
  br label %15

15:                                               ; preds = %14
  %16 = load ptr, ptr %5, align 8, !tbaa !12
  call void @ff_framesync_preinit(ptr noundef %16)
  %17 = load ptr, ptr %6, align 8, !tbaa !21
  %18 = load ptr, ptr %5, align 8, !tbaa !12
  %19 = getelementptr inbounds nuw %struct.FFFrameSync, ptr %18, i32 0, i32 1
  store ptr %17, ptr %19, align 8, !tbaa !33
  %20 = load i32, ptr %7, align 4, !tbaa !22
  %21 = load ptr, ptr %5, align 8, !tbaa !12
  %22 = getelementptr inbounds nuw %struct.FFFrameSync, ptr %21, i32 0, i32 2
  store i32 %20, ptr %22, align 8, !tbaa !34
  %23 = load i32, ptr %7, align 4, !tbaa !22
  %24 = zext i32 %23 to i64
  %25 = call noalias ptr @av_calloc(i64 noundef %24, i64 noundef 64)
  %26 = load ptr, ptr %5, align 8, !tbaa !12
  %27 = getelementptr inbounds nuw %struct.FFFrameSync, ptr %26, i32 0, i32 11
  store ptr %25, ptr %27, align 8, !tbaa !35
  %28 = load ptr, ptr %5, align 8, !tbaa !12
  %29 = getelementptr inbounds nuw %struct.FFFrameSync, ptr %28, i32 0, i32 11
  %30 = load ptr, ptr %29, align 8, !tbaa !35
  %31 = icmp ne ptr %30, null
  br i1 %31, label %35, label %32

32:                                               ; preds = %15
  %33 = load ptr, ptr %5, align 8, !tbaa !12
  %34 = getelementptr inbounds nuw %struct.FFFrameSync, ptr %33, i32 0, i32 2
  store i32 0, ptr %34, align 8, !tbaa !34
  store i32 -12, ptr %4, align 4
  br label %36

35:                                               ; preds = %15
  store i32 0, ptr %4, align 4
  br label %36

36:                                               ; preds = %35, %32
  %37 = load i32, ptr %4, align 4
  ret i32 %37
}