; Function Attrs: nounwind uwtable
define range(i32 -12, 1) i32 @ff_framesync_init(ptr noundef %0, ptr noundef %1, i32 noundef %2) local_unnamed_addr #3 {
  %4 = getelementptr inbounds nuw i8, ptr %1, i64 64
  %5 = load i32, ptr %4, align 8, !tbaa !16
  %6 = icmp eq i32 %5, 1
  br i1 %6, label %8, label %7

7:                                                ; preds = %3
  tail call void (ptr, i32, ptr, ...) @av_log(ptr noundef null, i32 noundef 0, ptr noundef nonnull @.str.1, ptr noundef nonnull @.str.2, ptr noundef nonnull @.str.3, i32 noundef 91) #8
  tail call void @abort() #9
  unreachable

8:                                                ; preds = %3
  %9 = load ptr, ptr %0, align 8, !tbaa !8
  %.not.i = icmp eq ptr %9, null
  br i1 %.not.i, label %10, label %ff_framesync_preinit.exit

10:                                               ; preds = %8
  store ptr @ff_framesync_class, ptr %0, align 8, !tbaa !8
  tail call void @av_opt_set_defaults(ptr noundef nonnull %0) #8
  br label %ff_framesync_preinit.exit

ff_framesync_preinit.exit:                        ; preds = %8, %10
  %11 = getelementptr inbounds nuw i8, ptr %0, i64 8
  store ptr %1, ptr %11, align 8, !tbaa !27
  %12 = getelementptr inbounds nuw i8, ptr %0, i64 16
  store i32 %2, ptr %12, align 8, !tbaa !28
  %13 = zext i32 %2 to i64
  %14 = tail call noalias ptr @av_calloc(i64 noundef %13, i64 noundef 64) #8
  %15 = getelementptr inbounds nuw i8, ptr %0, i64 72
  store ptr %14, ptr %15, align 8, !tbaa !29
  %.not = icmp eq ptr %14, null
  br i1 %.not, label %16, label %17

16:                                               ; preds = %ff_framesync_preinit.exit
  store i32 0, ptr %12, align 8, !tbaa !28
  br label %17

17:                                               ; preds = %ff_framesync_preinit.exit, %16
  %.0 = phi i32 [ -12, %16 ], [ 0, %ff_framesync_preinit.exit ]
  ret i32 %.0
}